target datalayout = "e-m:e-p270:32:32-p271:32:32-p272:64:64-i64:64-i128:128-f80:128-n8:16:32:64-S128"
target triple = "x86_64-pc-linux-gnu"

%struct.LWLock = type { i16, %struct.pg_atomic_uint32, %struct.proclist_head }
%struct.pg_atomic_uint32 = type { i32 }
%struct.proclist_head = type { i32, i32 }
%struct.ReplicationState = type { i16, i64, i64, i32, %struct.ConditionVariable, %struct.LWLock }
%struct.ConditionVariable = type { i8, %struct.proclist_head }
%struct.ReplicationStateCtl = type { i32, [0 x %struct.ReplicationState] }

@max_replication_slots = external global i32, align 4
@.str.5 = private unnamed_addr constant [23 x i8] c"ReplicationOriginState\00", align 1
@replication_states_ctl = internal global ptr null, align 8
@replication_states = internal global ptr null, align 8

; Function Attrs: nounwind uwtable
define dso_local i64 @ReplicationOriginShmemSize() #0 {
  %1 = alloca i64, align 8
  %2 = alloca i64, align 8
  %3 = alloca i32, align 4
  call void @llvm.lifetime.start.p0(i64 8, ptr %2) #9
  store i64 0, ptr %2, align 8
  %4 = load i32, ptr @max_replication_slots, align 4
  %5 = icmp eq i32 %4, 0
  br i1 %5, label %6, label %8

6:                                                ; preds = %0
  %7 = load i64, ptr %2, align 8
  store i64 %7, ptr %1, align 8
  store i32 1, ptr %3, align 4
  br label %17

8:                                                ; preds = %0
  %9 = load i64, ptr %2, align 8
  %10 = call i64 @add_size(i64 noundef %9, i64 noundef 8)
  store i64 %10, ptr %2, align 8
  %11 = load i64, ptr %2, align 8
  %12 = load i32, ptr @max_replication_slots, align 4
  %13 = sext i32 %12 to i64
  %14 = call i64 @mul_size(i64 noundef %13, i64 noundef 56)
  %15 = call i64 @add_size(i64 noundef %11, i64 noundef %14)
  store i64 %15, ptr %2, align 8
  %16 = load i64, ptr %2, align 8
  store i64 %16, ptr %1, align 8
  store i32 1, ptr %3, align 4
  br label %17

17:                                               ; preds = %8, %6
  call void @llvm.lifetime.end.p0(i64 8, ptr %2) #9
  %18 = load i64, ptr %1, align 8
  ret i64 %18
}

; Function Attrs: nounwind uwtable
define dso_local void @ReplicationOriginShmemInit() #0 {
  %1 = alloca i8, align 1
  %2 = alloca i32, align 4
  %3 = alloca i32, align 4
  %4 = alloca ptr, align 8
  %5 = alloca i32, align 4
  %6 = alloca i64, align 8
  %7 = alloca ptr, align 8
  %8 = alloca ptr, align 8
  call void @llvm.lifetime.start.p0(i64 1, ptr %1) #9
  %9 = load i32, ptr @max_replication_slots, align 4
  %10 = icmp eq i32 %9, 0
  br i1 %10, label %11, label %12

11:                                               ; preds = %0
  store i32 1, ptr %2, align 4
  br label %84

12:                                               ; preds = %0
  %13 = call i64 @ReplicationOriginShmemSize()
  %14 = call ptr @ShmemInitStruct(ptr noundef @.str.5, i64 noundef %13, ptr noundef %1)
  store ptr %14, ptr @replication_states_ctl, align 8
  %15 = load ptr, ptr @replication_states_ctl, align 8
  %16 = getelementptr inbounds nuw %struct.ReplicationStateCtl, ptr %15, i32 0, i32 1
  %17 = getelementptr inbounds [0 x %struct.ReplicationState], ptr %16, i64 0, i64 0
  store ptr %17, ptr @replication_states, align 8
  %18 = load i8, ptr %1, align 1, !range !4, !noundef !5
  %19 = trunc i8 %18 to i1
  br i1 %19, label %83, label %20

20:                                               ; preds = %12
  call void @llvm.lifetime.start.p0(i64 4, ptr %3) #9
  br label %21

21:                                               ; preds = %20
  call void @llvm.lifetime.start.p0(i64 8, ptr %4) #9
  %22 = load ptr, ptr @replication_states_ctl, align 8
  store ptr %22, ptr %4, align 8
  call void @llvm.lifetime.start.p0(i64 4, ptr %5) #9
  store i32 0, ptr %5, align 4
  call void @llvm.lifetime.start.p0(i64 8, ptr %6) #9
  %23 = call i64 @ReplicationOriginShmemSize()
  store i64 %23, ptr %6, align 8
  %24 = load ptr, ptr %4, align 8
  %25 = ptrtoint ptr %24 to i64
  %26 = and i64 %25, 7
  %27 = icmp eq i64 %26, 0
  br i1 %27, label %28, label %51

28:                                               ; preds = %21
  %29 = load i64, ptr %6, align 8
  %30 = and i64 %29, 7
  %31 = icmp eq i64 %30, 0
  br i1 %31, label %32, label %51

32:                                               ; preds = %28
  %33 = load i32, ptr %5, align 4
  %34 = icmp eq i32 %33, 0
  br i1 %34, label %35, label %51

35:                                               ; preds = %32
  %36 = load i64, ptr %6, align 8
  %37 = icmp ule i64 %36, 1024
  br i1 %37, label %38, label %51

38:                                               ; preds = %35
  call void @llvm.lifetime.start.p0(i64 8, ptr %7) #9
  %39 = load ptr, ptr %4, align 8
  store ptr %39, ptr %7, align 8
  call void @llvm.lifetime.start.p0(i64 8, ptr %8) #9
  %40 = load ptr, ptr %7, align 8
  %41 = load i64, ptr %6, align 8
  %42 = getelementptr inbounds nuw i8, ptr %40, i64 %41
  store ptr %42, ptr %8, align 8
  br label %43

43:                                               ; preds = %47, %38
  %44 = load ptr, ptr %7, align 8
  %45 = load ptr, ptr %8, align 8
  %46 = icmp ult ptr %44, %45
  br i1 %46, label %47, label %50

47:                                               ; preds = %43
  %48 = load ptr, ptr %7, align 8
  %49 = getelementptr inbounds nuw i64, ptr %48, i32 1
  store ptr %49, ptr %7, align 8
  store i64 0, ptr %48, align 8
  br label %43, !llvm.loop !9

50:                                               ; preds = %43
  call void @llvm.lifetime.end.p0(i64 8, ptr %8) #9
  call void @llvm.lifetime.end.p0(i64 8, ptr %7) #9
  br label %56

51:                                               ; preds = %35, %32, %28, %21
  %52 = load ptr, ptr %4, align 8
  %53 = load i32, ptr %5, align 4
  %54 = trunc i32 %53 to i8
  %55 = load i64, ptr %6, align 8
  call void @llvm.memset.p0.i64(ptr align 1 %52, i8 %54, i64 %55, i1 false)
  br label %56

56:                                               ; preds = %51, %50
  call void @llvm.lifetime.end.p0(i64 8, ptr %6) #9
  call void @llvm.lifetime.end.p0(i64 4, ptr %5) #9
  call void @llvm.lifetime.end.p0(i64 8, ptr %4) #9
  br label %57

57:                                               ; preds = %56
  br label %58

58:                                               ; preds = %57
  %59 = load ptr, ptr @replication_states_ctl, align 8
  %60 = getelementptr inbounds nuw %struct.ReplicationStateCtl, ptr %59, i32 0, i32 0
  store i32 62, ptr %60, align 8
  store i32 0, ptr %3, align 4
  br label %61

61:                                               ; preds = %79, %58
  %62 = load i32, ptr %3, align 4
  %63 = load i32, ptr @max_replication_slots, align 4
  %64 = icmp slt i32 %62, %63
  br i1 %64, label %65, label %82

65:                                               ; preds = %61
  %66 = load ptr, ptr @replication_states, align 8
  %67 = load i32, ptr %3, align 4
  %68 = sext i32 %67 to i64
  %69 = getelementptr inbounds %struct.ReplicationState, ptr %66, i64 %68
  %70 = getelementptr inbounds nuw %struct.ReplicationState, ptr %69, i32 0, i32 5
  %71 = load ptr, ptr @replication_states_ctl, align 8
  %72 = getelementptr inbounds nuw %struct.ReplicationStateCtl, ptr %71, i32 0, i32 0
  %73 = load i32, ptr %72, align 8
  call void @LWLockInitialize(ptr noundef %70, i32 noundef %73)
  %74 = load ptr, ptr @replication_states, align 8
  %75 = load i32, ptr %3, align 4
  %76 = sext i32 %75 to i64
  %77 = getelementptr inbounds %struct.ReplicationState, ptr %74, i64 %76
  %78 = getelementptr inbounds nuw %struct.ReplicationState, ptr %77, i32 0, i32 4
  call void @ConditionVariableInit(ptr noundef %78)
  br label %79

79:                                               ; preds = %65
  %80 = load i32, ptr %3, align 4
  %81 = add i32 %80, 1
  store i32 %81, ptr %3, align 4
  br label %61, !llvm.loop !10

82:                                               ; preds = %61
  call void @llvm.lifetime.end.p0(i64 4, ptr %3) #9
  br label %83

83:                                               ; preds = %82, %12
  store i32 0, ptr %2, align 4
  br label %84

84:                                               ; preds = %83, %11
  call void @llvm.lifetime.end.p0(i64 1, ptr %1) #9
  %85 = load i32, ptr %2, align 4
  switch i32 %85, label %87 [
    i32 0, label %86
    i32 1, label %86
  ]

86:                                               ; preds = %84, %84
  ret void

87:                                               ; preds = %84
  unreachable
}