; Function Attrs: nounwind uwtable
define dso_local void @ReplicationOriginShmemInit() local_unnamed_addr #0 {
  %1 = alloca i8, align 1
  call void @llvm.lifetime.start.p0(i64 1, ptr nonnull %1) #10
  %2 = load i32, ptr @max_replication_slots, align 4
  %3 = icmp eq i32 %2, 0
  br i1 %3, label %.loopexit, label %ReplicationOriginShmemSize.exit

ReplicationOriginShmemSize.exit:                  ; preds = %0
  %4 = tail call i64 @add_size(i64 noundef 0, i64 noundef 8) #10
  %5 = load i32, ptr @max_replication_slots, align 4
  %6 = sext i32 %5 to i64
  %7 = tail call i64 @mul_size(i64 noundef %6, i64 noundef 56) #10
  %8 = tail call i64 @add_size(i64 noundef %4, i64 noundef %7) #10
  %9 = call ptr @ShmemInitStruct(ptr noundef nonnull @.str.5, i64 noundef %8, ptr noundef nonnull %1) #10
  store ptr %9, ptr @replication_states_ctl, align 8
  %10 = getelementptr inbounds nuw i8, ptr %9, i64 8
  store ptr %10, ptr @replication_states, align 8
  %11 = load i8, ptr %1, align 1, !range !8, !noundef !9
  %12 = trunc nuw i8 %11 to i1
  br i1 %12, label %.loopexit, label %13

13:                                               ; preds = %ReplicationOriginShmemSize.exit
  %14 = load i32, ptr @max_replication_slots, align 4
  %15 = icmp eq i32 %14, 0
  br i1 %15, label %ReplicationOriginShmemSize.exit22, label %16

16:                                               ; preds = %13
  %17 = call i64 @add_size(i64 noundef 0, i64 noundef 8) #10
  %18 = load i32, ptr @max_replication_slots, align 4
  %19 = sext i32 %18 to i64
  %20 = call i64 @mul_size(i64 noundef %19, i64 noundef 56) #10
  %21 = call i64 @add_size(i64 noundef %17, i64 noundef %20) #10
  br label %ReplicationOriginShmemSize.exit22

ReplicationOriginShmemSize.exit22:                ; preds = %13, %16
  %.0.i21 = phi i64 [ %21, %16 ], [ 0, %13 ]
  %22 = ptrtoint ptr %9 to i64
  %23 = and i64 %22, 7
  %24 = icmp eq i64 %23, 0
  br i1 %24, label %25, label %.loopexit23.sink.split

25:                                               ; preds = %ReplicationOriginShmemSize.exit22
  %26 = and i64 %.0.i21, 7
  %27 = icmp eq i64 %26, 0
  %28 = icmp ult i64 %.0.i21, 1025
  %or.cond3 = and i1 %28, %27
  br i1 %or.cond3, label %29, label %.loopexit23.sink.split

29:                                               ; preds = %25
  %.not = icmp eq i64 %.0.i21, 0
  br i1 %.not, label %.loopexit23, label %.lr.ph.preheader

.lr.ph.preheader:                                 ; preds = %29
  %30 = add i64 %.0.i21, %22
  %31 = add i64 %22, 8
  %umax = call i64 @llvm.umax.i64(i64 %30, i64 %31)
  %32 = xor i64 %22, -1
  %33 = add i64 %umax, %32
  %34 = and i64 %33, -8
  %35 = add i64 %34, 8
  br label %.loopexit23.sink.split

.loopexit23.sink.split:                           ; preds = %ReplicationOriginShmemSize.exit22, %25, %.lr.ph.preheader
  %.sink = phi i64 [ %35, %.lr.ph.preheader ], [ %.0.i21, %25 ], [ %.0.i21, %ReplicationOriginShmemSize.exit22 ]
  call void @llvm.memset.p0.i64(ptr align 1 %9, i8 0, i64 %.sink, i1 false)
  br label %.loopexit23

.loopexit23:                                      ; preds = %.loopexit23.sink.split, %29
  %36 = load ptr, ptr @replication_states_ctl, align 8
  store i32 62, ptr %36, align 8
  %37 = load i32, ptr @max_replication_slots, align 4
  %38 = icmp sgt i32 %37, 0
  br i1 %38, label %.lr.ph26, label %.loopexit

.lr.ph26:                                         ; preds = %.loopexit23, %.lr.ph26
  %indvars.iv = phi i64 [ %indvars.iv.next, %.lr.ph26 ], [ 0, %.loopexit23 ]
  %39 = load ptr, ptr @replication_states, align 8
  %40 = getelementptr inbounds nuw %struct.ReplicationState, ptr %39, i64 %indvars.iv, i32 5
  %41 = load ptr, ptr @replication_states_ctl, align 8
  %42 = load i32, ptr %41, align 8
  call void @LWLockInitialize(ptr noundef nonnull %40, i32 noundef %42) #10
  %43 = load ptr, ptr @replication_states, align 8
  %44 = getelementptr inbounds nuw %struct.ReplicationState, ptr %43, i64 %indvars.iv, i32 4
  call void @ConditionVariableInit(ptr noundef nonnull %44) #10
  %indvars.iv.next = add nuw nsw i64 %indvars.iv, 1
  %45 = load i32, ptr @max_replication_slots, align 4
  %46 = sext i32 %45 to i64
  %47 = icmp slt i64 %indvars.iv.next, %46
  br i1 %47, label %.lr.ph26, label %.loopexit, !llvm.loop !10

.loopexit:                                        ; preds = %.lr.ph26, %.loopexit23, %ReplicationOriginShmemSize.exit, %0
  call void @llvm.lifetime.end.p0(i64 1, ptr nonnull %1) #10
  ret void
}